; Function Attrs: mustprogress nofree norecurse nosync nounwind willreturn memory(readwrite, inaccessiblemem: none) uwtable
define dso_local void @Curl_sock_assign_addr(ptr noundef writeonly captures(none) initializes((0, 16)) %0, ptr noundef readonly captures(none) %1, i32 noundef %2) local_unnamed_addr #0 {
  %4 = getelementptr inbounds nuw i8, ptr %1, i64 4
  %5 = load i32, ptr %4, align 4
  store i32 %5, ptr %0, align 8
  switch i32 %2, label %7 [
    i32 3, label %8
    i32 6, label %6
  ]

6:                                                ; preds = %3
  br label %8

7:                                                ; preds = %3
  br label %8

8:                                                ; preds = %3, %7, %6
  %.sink15 = phi i32 [ 2, %7 ], [ 1, %6 ], [ 1, %3 ]
  %.sink = phi i32 [ 17, %7 ], [ 0, %6 ], [ 6, %3 ]
  %9 = getelementptr inbounds nuw i8, ptr %0, i64 8
  %10 = getelementptr inbounds nuw i8, ptr %0, i64 4
  store i32 %.sink15, ptr %10, align 4
  store i32 %.sink, ptr %9, align 8
  %11 = getelementptr inbounds nuw i8, ptr %1, i64 16
  %12 = load i32, ptr %11, align 8
  %spec.select = tail call i32 @llvm.umin.i32(i32 %12, i32 128)
  %13 = getelementptr inbounds nuw i8, ptr %0, i64 12
  store i32 %spec.select, ptr %13, align 4
  %14 = getelementptr inbounds nuw i8, ptr %0, i64 16
  %15 = getelementptr inbounds nuw i8, ptr %1, i64 32
  %16 = load ptr, ptr %15, align 8
  %17 = zext nneg i32 %spec.select to i64
  tail call void @llvm.memcpy.p0.p0.i64(ptr nonnull align 8 %14, ptr align 2 %16, i64 %17, i1 false)
  ret void
}